; Function Attrs: mustprogress nounwind uwtable
define internal fastcc void @_ZNSt8_Rb_treeIN3ue212_GLOBAL__N_121raw_gough_report_listESt4pairIKS2_jESt10_Select1stIS5_ESt4lessIS2_ESaIS5_EE8_M_eraseEPSt13_Rb_tree_nodeIS5_E(ptr noundef %0) unnamed_addr #8 align 2 personality ptr @__gxx_personality_v0 {
  %.not1 = icmp eq ptr %0, null
  br i1 %.not1, label %._crit_edge, label %.lr.ph

.lr.ph:                                           ; preds = %1, %_ZNSt8_Rb_treeIN3ue212_GLOBAL__N_121raw_gough_report_listESt4pairIKS2_jESt10_Select1stIS5_ESt4lessIS2_ESaIS5_EE12_M_drop_nodeEPSt13_Rb_tree_nodeIS5_E.exit
  %.02 = phi ptr [ %.0.val, %_ZNSt8_Rb_treeIN3ue212_GLOBAL__N_121raw_gough_report_listESt4pairIKS2_jESt10_Select1stIS5_ESt4lessIS2_ESaIS5_EE12_M_drop_nodeEPSt13_Rb_tree_nodeIS5_E.exit ], [ %0, %1 ]
  %2 = getelementptr i8, ptr %.02, i64 24
  %.0.val6 = load ptr, ptr %2, align 8
  tail call fastcc void @_ZNSt8_Rb_treeIN3ue212_GLOBAL__N_121raw_gough_report_listESt4pairIKS2_jESt10_Select1stIS5_ESt4lessIS2_ESaIS5_EE8_M_eraseEPSt13_Rb_tree_nodeIS5_E(ptr noundef %.0.val6)
  %3 = getelementptr i8, ptr %.02, i64 16
  %.0.val = load ptr, ptr %3, align 8
  %4 = getelementptr inbounds nuw i8, ptr %.02, i64 32
  %5 = getelementptr inbounds nuw i8, ptr %.02, i64 48
  %6 = load ptr, ptr %5, align 8
  invoke void @_ZNSt8_Rb_treeIN3ue210som_reportES1_St9_IdentityIS1_ESt4lessIS1_ESaIS1_EE8_M_eraseEPSt13_Rb_tree_nodeIS1_E(ptr noundef nonnull align 8 dereferenceable(52) %4, ptr noundef %6)
          to label %_ZNSt8_Rb_treeIN3ue212_GLOBAL__N_121raw_gough_report_listESt4pairIKS2_jESt10_Select1stIS5_ESt4lessIS2_ESaIS5_EE12_M_drop_nodeEPSt13_Rb_tree_nodeIS5_E.exit unwind label %7

7:                                                ; preds = %.lr.ph
  %8 = landingpad { ptr, i32 }
          catch ptr null
  %9 = extractvalue { ptr, i32 } %8, 0
  tail call void @__clang_call_terminate(ptr %9) #32
  unreachable

_ZNSt8_Rb_treeIN3ue212_GLOBAL__N_121raw_gough_report_listESt4pairIKS2_jESt10_Select1stIS5_ESt4lessIS2_ESaIS5_EE12_M_drop_nodeEPSt13_Rb_tree_nodeIS5_E.exit: ; preds = %.lr.ph
  tail call void @_ZdlPv(ptr noundef nonnull %.02) #35
  %.not = icmp eq ptr %.0.val, null
  br i1 %.not, label %._crit_edge, label %.lr.ph, !llvm.loop !942

._crit_edge:                                      ; preds = %_ZNSt8_Rb_treeIN3ue212_GLOBAL__N_121raw_gough_report_listESt4pairIKS2_jESt10_Select1stIS5_ESt4lessIS2_ESaIS5_EE12_M_drop_nodeEPSt13_Rb_tree_nodeIS5_E.exit, %1
  ret void
}